target datalayout = "e-m:e-p270:32:32-p271:32:32-p272:64:64-i64:64-i128:128-f80:128-n8:16:32:64-S128"
target triple = "x86_64-pc-linux-gnu"

%struct._dcerpc_info = type { ptr, i32, i64, i8, i32, i32, i32, i32, i32, i32, i32, i32, i32, i32, ptr, ptr, ptr }

@hf_drsuapi_drsuapi_DsExecuteKCCRequest_ctr1 = internal global i32 -1, align 4
@hf_drsuapi_drsuapi_DsExecuteKCC_req = internal global i32 -1, align 4
@ett_drsuapi_drsuapi_DsExecuteKCCRequest = internal global i32 -1, align 4
@.str.1775 = private unnamed_addr constant [28 x i8] c"drsuapi_DsExecuteKCCRequest\00", align 1

; Function Attrs: nounwind uwtable
define internal i32 @drsuapi_dissect_element_DsExecuteKCCRequest_ctr1(ptr noundef %0, i32 noundef %1, ptr noundef %2, ptr noundef %3, ptr noundef %4, ptr noundef %5) #0 {
  %7 = alloca ptr, align 8
  %8 = alloca i32, align 4
  %9 = alloca ptr, align 8
  %10 = alloca ptr, align 8
  %11 = alloca ptr, align 8
  %12 = alloca ptr, align 8
  store ptr %0, ptr %7, align 8
  store i32 %1, ptr %8, align 4
  store ptr %2, ptr %9, align 8
  store ptr %3, ptr %10, align 8
  store ptr %4, ptr %11, align 8
  store ptr %5, ptr %12, align 8
  %13 = load ptr, ptr %7, align 8
  %14 = load i32, ptr %8, align 4
  %15 = load ptr, ptr %9, align 8
  %16 = load ptr, ptr %10, align 8
  %17 = load ptr, ptr %11, align 8
  %18 = load ptr, ptr %12, align 8
  %19 = load i32, ptr @hf_drsuapi_drsuapi_DsExecuteKCCRequest_ctr1, align 4
  %20 = call i32 @drsuapi_dissect_struct_DsExecuteKCC1(ptr noundef %13, i32 noundef %14, ptr noundef %15, ptr noundef %16, ptr noundef %17, ptr noundef %18, i32 noundef %19, i32 noundef 0)
  store i32 %20, ptr %8, align 4
  %21 = load i32, ptr %8, align 4
  ret i32 %21
}

; Function Attrs: nounwind uwtable
define internal i32 @drsuapi_dissect_DsExecuteKCCRequest(ptr noundef %0, i32 noundef %1, ptr noundef %2, ptr noundef %3, ptr noundef %4, ptr noundef %5, i32 noundef %6, i32 noundef %7) #0 {
  %9 = alloca ptr, align 8
  %10 = alloca i32, align 4
  %11 = alloca ptr, align 8
  %12 = alloca ptr, align 8
  %13 = alloca ptr, align 8
  %14 = alloca ptr, align 8
  %15 = alloca i32, align 4
  %16 = alloca i32, align 4
  %17 = alloca ptr, align 8
  %18 = alloca ptr, align 8
  %19 = alloca i32, align 4
  %20 = alloca i32, align 4
  store ptr %0, ptr %9, align 8
  store i32 %1, ptr %10, align 4
  store ptr %2, ptr %11, align 8
  store ptr %3, ptr %12, align 8
  store ptr %4, ptr %13, align 8
  store ptr %5, ptr %14, align 8
  store i32 %6, ptr %15, align 4
  store i32 %7, ptr %16, align 4
  store ptr null, ptr %17, align 8
  store ptr null, ptr %18, align 8
  %21 = load i32, ptr %10, align 4
  store i32 %21, ptr %19, align 4
  %22 = load ptr, ptr %12, align 8
  %23 = icmp ne ptr %22, null
  br i1 %23, label %24, label %30

24:                                               ; preds = %8
  %25 = load ptr, ptr %12, align 8
  %26 = load ptr, ptr %9, align 8
  %27 = load i32, ptr %10, align 4
  %28 = load i32, ptr @ett_drsuapi_drsuapi_DsExecuteKCCRequest, align 4
  %29 = call ptr @proto_tree_add_subtree(ptr noundef %25, ptr noundef %26, i32 noundef %27, i32 noundef -1, i32 noundef %28, ptr noundef %17, ptr noundef @.str.1775)
  store ptr %29, ptr %18, align 8
  br label %30

30:                                               ; preds = %24, %8
  %31 = load ptr, ptr %9, align 8
  %32 = load i32, ptr %10, align 4
  %33 = load ptr, ptr %11, align 8
  %34 = load ptr, ptr %18, align 8
  %35 = load ptr, ptr %13, align 8
  %36 = load ptr, ptr %14, align 8
  %37 = load i32, ptr %15, align 4
  %38 = call i32 @dissect_ndr_uint32(ptr noundef %31, i32 noundef %32, ptr noundef %33, ptr noundef %34, ptr noundef %35, ptr noundef %36, i32 noundef %37, ptr noundef %20)
  store i32 %38, ptr %10, align 4
  %39 = load ptr, ptr %13, align 8
  %40 = getelementptr inbounds %struct._dcerpc_info, ptr %39, i32 0, i32 4
  %41 = load i32, ptr %40, align 4
  %42 = icmp ne i32 %41, 0
  br i1 %42, label %52, label %43

43:                                               ; preds = %30
  %44 = load i32, ptr %10, align 4
  %45 = and i32 %44, 3
  %46 = icmp ne i32 %45, 0
  br i1 %46, label %47, label %51

47:                                               ; preds = %43
  %48 = load i32, ptr %10, align 4
  %49 = and i32 %48, -4
  %50 = add i32 %49, 4
  store i32 %50, ptr %10, align 4
  br label %51

51:                                               ; preds = %47, %43
  br label %52

52:                                               ; preds = %51, %30
  %53 = load i32, ptr %20, align 4
  switch i32 %53, label %62 [
    i32 1, label %54
  ]

54:                                               ; preds = %52
  %55 = load ptr, ptr %9, align 8
  %56 = load i32, ptr %10, align 4
  %57 = load ptr, ptr %11, align 8
  %58 = load ptr, ptr %18, align 8
  %59 = load ptr, ptr %13, align 8
  %60 = load ptr, ptr %14, align 8
  %61 = call i32 @drsuapi_dissect_element_DsExecuteKCCRequest_ctr1(ptr noundef %55, i32 noundef %56, ptr noundef %57, ptr noundef %58, ptr noundef %59, ptr noundef %60)
  store i32 %61, ptr %10, align 4
  br label %62

62:                                               ; preds = %54, %52
  %63 = load ptr, ptr %17, align 8
  %64 = load i32, ptr %10, align 4
  %65 = load i32, ptr %19, align 4
  %66 = sub i32 %64, %65
  call void @proto_item_set_len(ptr noundef %63, i32 noundef %66)
  %67 = load i32, ptr %10, align 4
  ret i32 %67
}

; Function Attrs: nounwind uwtable
define internal i32 @drsuapi_dissect_element_DsExecuteKCC_req_(ptr noundef %0, i32 noundef %1, ptr noundef %2, ptr noundef %3, ptr noundef %4, ptr noundef %5) #0 {
  %7 = alloca ptr, align 8
  %8 = alloca i32, align 4
  %9 = alloca ptr, align 8
  %10 = alloca ptr, align 8
  %11 = alloca ptr, align 8
  %12 = alloca ptr, align 8
  store ptr %0, ptr %7, align 8
  store i32 %1, ptr %8, align 4
  store ptr %2, ptr %9, align 8
  store ptr %3, ptr %10, align 8
  store ptr %4, ptr %11, align 8
  store ptr %5, ptr %12, align 8
  %13 = load ptr, ptr %7, align 8
  %14 = load i32, ptr %8, align 4
  %15 = load ptr, ptr %9, align 8
  %16 = load ptr, ptr %10, align 8
  %17 = load ptr, ptr %11, align 8
  %18 = load ptr, ptr %12, align 8
  %19 = load i32, ptr @hf_drsuapi_drsuapi_DsExecuteKCC_req, align 4
  %20 = call i32 @drsuapi_dissect_DsExecuteKCCRequest(ptr noundef %13, i32 noundef %14, ptr noundef %15, ptr noundef %16, ptr noundef %17, ptr noundef %18, i32 noundef %19, i32 noundef 0)
  store i32 %20, ptr %8, align 4
  %21 = load i32, ptr %8, align 4
  ret i32 %21
}